; Function Attrs: mustprogress nofree nounwind willreturn uwtable
define noalias noundef ptr @If_LibLutDup(ptr noundef readonly captures(none) %0) local_unnamed_addr #9 {
  %2 = tail call noalias dereferenceable_or_null(4504) ptr @malloc(i64 noundef 4504) #19
  tail call void @llvm.memcpy.p0.p0.i64(ptr noundef nonnull align 8 dereferenceable(4504) %2, ptr noundef nonnull align 8 dereferenceable(4504) %0, i64 4504, i1 false), !tbaa.struct !38
  %3 = load ptr, ptr %2, align 8, !tbaa !32
  %.not.i = icmp eq ptr %3, null
  br i1 %.not.i, label %Abc_UtilStrsav.exit, label %4

4:                                                ; preds = %1
  %5 = tail call i64 @strlen(ptr noundef nonnull readonly dereferenceable(1) %3) #20
  %6 = add i64 %5, 1
  %7 = tail call noalias ptr @malloc(i64 noundef %6) #19
  %8 = tail call ptr @strcpy(ptr noundef nonnull dereferenceable(1) %7, ptr noundef nonnull readonly dereferenceable(1) %3) #21
  br label %Abc_UtilStrsav.exit

Abc_UtilStrsav.exit:                              ; preds = %1, %4
  %9 = phi ptr [ %7, %4 ], [ null, %1 ]
  store ptr %9, ptr %2, align 8, !tbaa !32
  ret ptr %2
}